target datalayout = "e-m:e-p270:32:32-p271:32:32-p272:64:64-i64:64-i128:128-f80:128-n8:16:32:64-S128"
target triple = "x86_64-pc-linux-gnu"

%"class.std::ios_base::Init" = type { i8 }
%"struct.pxrInternal_v0_24__pxrReserved__::Arch_PerLibInit" = type { i8 }
%"struct.pxrInternal_v0_24__pxrReserved__::(anonymous namespace)::Tf_RegistryStaticInit" = type { i8 }
%"struct.pxrInternal_v0_24__pxrReserved__::Tf_BaseTypeInfos" = type { ptr }
%"struct.pxrInternal_v0_24__pxrReserved__::Tf_TypeCastFunctions" = type { ptr }
%"struct.pxrInternal_v0_24__pxrReserved__::Tf_TypeCastFunctions.0" = type { ptr }

$_ZN32pxrInternal_v0_24__pxrReserved__15Tf_RegistryInit3AddINS_6TfTypeEvEEvPKcPFvPT_PT0_ES4_ = comdat any

$_ZN32pxrInternal_v0_24__pxrReserved__6TfType6DefineINS_14SdfOpaqueValueEEERKS0_v = comdat any

$_ZN32pxrInternal_v0_24__pxrReserved__6TfType6DefineINS_7VtArrayINS_14SdfOpaqueValueEEEEERKS0_v = comdat any

$_ZN32pxrInternal_v0_24__pxrReserved__6TfType6DefineINS_14SdfOpaqueValueENS0_5BasesIJEEEEERKS0_v = comdat any

$_ZN32pxrInternal_v0_24__pxrReserved__16Tf_BaseTypeInfosINS_6TfType5BasesIJEEEEC2Ev = comdat any

$_ZN32pxrInternal_v0_24__pxrReserved__20Tf_TypeCastFunctionsINS_14SdfOpaqueValueENS_6TfType5BasesIJEEEEC2Ev = comdat any

$_ZN32pxrInternal_v0_24__pxrReserved__6TfType6DefineINS_7VtArrayINS_14SdfOpaqueValueEEENS0_5BasesIJEEEEERKS0_v = comdat any

$_ZN32pxrInternal_v0_24__pxrReserved__20Tf_TypeCastFunctionsINS_7VtArrayINS_14SdfOpaqueValueEEENS_6TfType5BasesIJEEEEC2Ev = comdat any

$__clang_call_terminate = comdat any

$_ZTSN32pxrInternal_v0_24__pxrReserved__14SdfOpaqueValueE = comdat any

$_ZTIN32pxrInternal_v0_24__pxrReserved__14SdfOpaqueValueE = comdat any

$_ZTSN32pxrInternal_v0_24__pxrReserved__7VtArrayINS_14SdfOpaqueValueEEE = comdat any

$_ZTSN32pxrInternal_v0_24__pxrReserved__12Vt_ArrayBaseE = comdat any

$_ZTIN32pxrInternal_v0_24__pxrReserved__12Vt_ArrayBaseE = comdat any

$_ZTIN32pxrInternal_v0_24__pxrReserved__7VtArrayINS_14SdfOpaqueValueEEE = comdat any

@_ZStL8__ioinit = internal global %"class.std::ios_base::Init" zeroinitializer, align 1
@__dso_handle = external hidden global i8
@.str = private unnamed_addr constant [4 x i8] c"sdf\00", align 1
@.str.1 = private unnamed_addr constant [7 x i8] c"TfType\00", align 1
@_ZN32pxrInternal_v0_24__pxrReserved__L16_tfRegistryInit0E = internal global %"struct.pxrInternal_v0_24__pxrReserved__::Arch_PerLibInit" zeroinitializer, align 1
@.str.3 = private unnamed_addr constant [12 x i8] c"OpaqueValue\00", align 1
@_ZN32pxrInternal_v0_24__pxrReserved__15Arch_PerLibInitINS_12_GLOBAL__N_121Tf_RegistryStaticInitEE4initE = internal global %"struct.pxrInternal_v0_24__pxrReserved__::(anonymous namespace)::Tf_RegistryStaticInit" zeroinitializer, align 1
@_ZTVN10__cxxabiv117__class_type_infoE = external global [0 x ptr]
@_ZTSN32pxrInternal_v0_24__pxrReserved__14SdfOpaqueValueE = linkonce_odr constant [53 x i8] c"N32pxrInternal_v0_24__pxrReserved__14SdfOpaqueValueE\00", comdat, align 1
@_ZTIN32pxrInternal_v0_24__pxrReserved__14SdfOpaqueValueE = linkonce_odr constant { ptr, ptr } { ptr getelementptr inbounds (ptr, ptr @_ZTVN10__cxxabiv117__class_type_infoE, i64 2), ptr @_ZTSN32pxrInternal_v0_24__pxrReserved__14SdfOpaqueValueE }, comdat, align 8
@_ZTVN10__cxxabiv120__si_class_type_infoE = external global [0 x ptr]
@_ZTSN32pxrInternal_v0_24__pxrReserved__7VtArrayINS_14SdfOpaqueValueEEE = linkonce_odr constant [67 x i8] c"N32pxrInternal_v0_24__pxrReserved__7VtArrayINS_14SdfOpaqueValueEEE\00", comdat, align 1
@_ZTSN32pxrInternal_v0_24__pxrReserved__12Vt_ArrayBaseE = linkonce_odr constant [51 x i8] c"N32pxrInternal_v0_24__pxrReserved__12Vt_ArrayBaseE\00", comdat, align 1
@_ZTIN32pxrInternal_v0_24__pxrReserved__12Vt_ArrayBaseE = linkonce_odr constant { ptr, ptr } { ptr getelementptr inbounds (ptr, ptr @_ZTVN10__cxxabiv117__class_type_infoE, i64 2), ptr @_ZTSN32pxrInternal_v0_24__pxrReserved__12Vt_ArrayBaseE }, comdat, align 8
@_ZTIN32pxrInternal_v0_24__pxrReserved__7VtArrayINS_14SdfOpaqueValueEEE = linkonce_odr constant { ptr, ptr, ptr } { ptr getelementptr inbounds (ptr, ptr @_ZTVN10__cxxabiv120__si_class_type_infoE, i64 2), ptr @_ZTSN32pxrInternal_v0_24__pxrReserved__7VtArrayINS_14SdfOpaqueValueEEE, ptr @_ZTIN32pxrInternal_v0_24__pxrReserved__12Vt_ArrayBaseE }, comdat, align 8
@llvm.global_ctors = appending global [3 x { i32, ptr, ptr }] [{ i32, ptr, ptr } { i32 65535, ptr @__cxx_global_var_init.4, ptr null }, { i32, ptr, ptr } { i32 200, ptr @_ZN32pxrInternal_v0_24__pxrReserved__L17_Tf_RegistryAdd18EPNS_6TfTypeE, ptr null }, { i32, ptr, ptr } { i32 65535, ptr @_GLOBAL__sub_I_opaqueValue.cpp, ptr null }]
@llvm.compiler.used = appending global [1 x ptr] [ptr @_ZN32pxrInternal_v0_24__pxrReserved__L17_Tf_RegistryAdd18EPNS_6TfTypeE], section "llvm.metadata"

; Function Attrs: uwtable
define internal void @__cxx_global_var_init() #0 section ".text.startup" {
  call void @_ZNSt8ios_base4InitC1Ev(ptr noundef nonnull align 1 dereferenceable(1) @_ZStL8__ioinit)
  %1 = call i32 @__cxa_atexit(ptr @_ZNSt8ios_base4InitD1Ev, ptr @_ZStL8__ioinit, ptr @__dso_handle) #3
  ret void
}

declare void @_ZNSt8ios_base4InitC1Ev(ptr noundef nonnull align 1 dereferenceable(1)) unnamed_addr #1

; Function Attrs: nounwind
declare void @_ZNSt8ios_base4InitD1Ev(ptr noundef nonnull align 1 dereferenceable(1)) unnamed_addr #2

; Function Attrs: nounwind
declare i32 @__cxa_atexit(ptr, ptr, ptr) #3

; Function Attrs: mustprogress uwtable
define internal void @_ZN32pxrInternal_v0_24__pxrReserved__L17_Tf_RegistryAdd18EPNS_6TfTypeE(ptr noundef %0) #4 section ".pxrctor" {
  %2 = alloca ptr, align 8
  store ptr %0, ptr %2, align 8
  call void @_ZN32pxrInternal_v0_24__pxrReserved__15Tf_RegistryInit3AddINS_6TfTypeEvEEvPKcPFvPT_PT0_ES4_(ptr noundef @.str, ptr noundef @_ZN32pxrInternal_v0_24__pxrReserved__L22_Tf_RegistryFunction18EPNS_6TfTypeEPv, ptr noundef @.str.1)
  ret void
}

; Function Attrs: mustprogress uwtable
define linkonce_odr void @_ZN32pxrInternal_v0_24__pxrReserved__15Tf_RegistryInit3AddINS_6TfTypeEvEEvPKcPFvPT_PT0_ES4_(ptr noundef %0, ptr noundef %1, ptr noundef %2) #4 comdat align 2 {
  %4 = alloca ptr, align 8
  %5 = alloca ptr, align 8
  %6 = alloca ptr, align 8
  store ptr %0, ptr %4, align 8
  store ptr %1, ptr %5, align 8
  store ptr %2, ptr %6, align 8
  %7 = load ptr, ptr %4, align 8
  %8 = load ptr, ptr %5, align 8
  %9 = load ptr, ptr %6, align 8
  call void @_ZN32pxrInternal_v0_24__pxrReserved__15Tf_RegistryInit3AddEPKcPFvPvS3_ES2_(ptr noundef %7, ptr noundef %8, ptr noundef %9)
  ret void
}

; Function Attrs: mustprogress uwtable
define internal void @_ZN32pxrInternal_v0_24__pxrReserved__L22_Tf_RegistryFunction18EPNS_6TfTypeEPv(ptr noundef %0, ptr noundef %1) #4 {
  %3 = alloca ptr, align 8
  %4 = alloca ptr, align 8
  store ptr %0, ptr %3, align 8
  store ptr %1, ptr %4, align 8
  %5 = call noundef nonnull align 8 dereferenceable(8) ptr @_ZN32pxrInternal_v0_24__pxrReserved__6TfType6DefineINS_14SdfOpaqueValueEEERKS0_v()
  %6 = call noundef nonnull align 8 dereferenceable(8) ptr @_ZN32pxrInternal_v0_24__pxrReserved__6TfType6DefineINS_7VtArrayINS_14SdfOpaqueValueEEEEERKS0_v()
  ret void
}

; Function Attrs: uwtable
define internal void @__cxx_global_var_init.2() #0 section ".text.startup" {
  call void @_ZN32pxrInternal_v0_24__pxrReserved__15Arch_PerLibInitINS_12_GLOBAL__N_121Tf_RegistryStaticInitEEC2Ev(ptr noundef nonnull align 1 dereferenceable(1) @_ZN32pxrInternal_v0_24__pxrReserved__L16_tfRegistryInit0E)
  ret void
}

; Function Attrs: mustprogress nounwind uwtable
define internal void @_ZN32pxrInternal_v0_24__pxrReserved__15Arch_PerLibInitINS_12_GLOBAL__N_121Tf_RegistryStaticInitEEC2Ev(ptr noundef nonnull align 1 dereferenceable(1) %0) unnamed_addr #5 align 2 {
  %2 = alloca ptr, align 8
  store ptr %0, ptr %2, align 8
  ret void
}

; Function Attrs: mustprogress uwtable
define noundef nonnull align 8 dereferenceable(8) ptr @_ZN32pxrInternal_v0_24__pxrReserved__lsERSoRKNS_14SdfOpaqueValueE(ptr noundef nonnull align 8 dereferenceable(8) %0, ptr noundef nonnull align 1 dereferenceable(1) %1) #4 {
  %3 = alloca ptr, align 8
  %4 = alloca ptr, align 8
  store ptr %0, ptr %3, align 8
  store ptr %1, ptr %4, align 8
  %5 = load ptr, ptr %3, align 8
  %6 = call noundef nonnull align 8 dereferenceable(8) ptr @_ZStlsISt11char_traitsIcEERSt13basic_ostreamIcT_ES5_PKc(ptr noundef nonnull align 8 dereferenceable(8) %5, ptr noundef @.str.3)
  ret ptr %6
}

declare noundef nonnull align 8 dereferenceable(8) ptr @_ZStlsISt11char_traitsIcEERSt13basic_ostreamIcT_ES5_PKc(ptr noundef nonnull align 8 dereferenceable(8), ptr noundef) #1

; Function Attrs: uwtable
define internal void @__cxx_global_var_init.4() #0 section ".text.startup" {
  call void @_ZN32pxrInternal_v0_24__pxrReserved__12_GLOBAL__N_121Tf_RegistryStaticInitC2Ev(ptr noundef nonnull align 1 dereferenceable(1) @_ZN32pxrInternal_v0_24__pxrReserved__15Arch_PerLibInitINS_12_GLOBAL__N_121Tf_RegistryStaticInitEE4initE)
  %1 = call i32 @__cxa_atexit(ptr @_ZN32pxrInternal_v0_24__pxrReserved__12_GLOBAL__N_121Tf_RegistryStaticInitD2Ev, ptr @_ZN32pxrInternal_v0_24__pxrReserved__15Arch_PerLibInitINS_12_GLOBAL__N_121Tf_RegistryStaticInitEE4initE, ptr @__dso_handle) #3
  ret void
}

; Function Attrs: mustprogress uwtable
define internal void @_ZN32pxrInternal_v0_24__pxrReserved__12_GLOBAL__N_121Tf_RegistryStaticInitC2Ev(ptr noundef nonnull align 1 dereferenceable(1) %0) unnamed_addr #4 align 2 {
  %2 = alloca ptr, align 8
  store ptr %0, ptr %2, align 8
  call void @_ZN32pxrInternal_v0_24__pxrReserved__19Tf_RegistryInitCtorEPKc(ptr noundef @.str)
  ret void
}

; Function Attrs: mustprogress nounwind uwtable
define internal void @_ZN32pxrInternal_v0_24__pxrReserved__12_GLOBAL__N_121Tf_RegistryStaticInitD2Ev(ptr noundef nonnull align 1 dereferenceable(1) %0) unnamed_addr #5 align 2 personality ptr @__gxx_personality_v0 {
  %2 = alloca ptr, align 8
  store ptr %0, ptr %2, align 8
  invoke void @_ZN32pxrInternal_v0_24__pxrReserved__19Tf_RegistryInitDtorEPKc(ptr noundef @.str)
          to label %3 unwind label %4

3:                                                ; preds = %1
  ret void

4:                                                ; preds = %1
  %5 = landingpad { ptr, i32 }
          catch ptr null
  %6 = extractvalue { ptr, i32 } %5, 0
  call void @__clang_call_terminate(ptr %6) #7
  unreachable
}

; Function Attrs: mustprogress uwtable
define linkonce_odr noundef nonnull align 8 dereferenceable(8) ptr @_ZN32pxrInternal_v0_24__pxrReserved__6TfType6DefineINS_14SdfOpaqueValueEEERKS0_v() #4 comdat align 2 {
  %1 = call noundef nonnull align 8 dereferenceable(8) ptr @_ZN32pxrInternal_v0_24__pxrReserved__6TfType6DefineINS_14SdfOpaqueValueENS0_5BasesIJEEEEERKS0_v()
  ret ptr %1
}

; Function Attrs: mustprogress uwtable
define linkonce_odr noundef nonnull align 8 dereferenceable(8) ptr @_ZN32pxrInternal_v0_24__pxrReserved__6TfType6DefineINS_7VtArrayINS_14SdfOpaqueValueEEEEERKS0_v() #4 comdat align 2 {
  %1 = call noundef nonnull align 8 dereferenceable(8) ptr @_ZN32pxrInternal_v0_24__pxrReserved__6TfType6DefineINS_7VtArrayINS_14SdfOpaqueValueEEENS0_5BasesIJEEEEERKS0_v()
  ret ptr %1
}

; Function Attrs: mustprogress uwtable
define linkonce_odr noundef nonnull align 8 dereferenceable(8) ptr @_ZN32pxrInternal_v0_24__pxrReserved__6TfType6DefineINS_14SdfOpaqueValueENS0_5BasesIJEEEEERKS0_v() #4 comdat align 2 {
  %1 = alloca %"struct.pxrInternal_v0_24__pxrReserved__::Tf_BaseTypeInfos", align 8
  %2 = alloca %"struct.pxrInternal_v0_24__pxrReserved__::Tf_TypeCastFunctions", align 8
  call void @_ZN32pxrInternal_v0_24__pxrReserved__16Tf_BaseTypeInfosINS_6TfType5BasesIJEEEEC2Ev(ptr noundef nonnull align 8 dereferenceable(8) %1) #3
  call void @_ZN32pxrInternal_v0_24__pxrReserved__20Tf_TypeCastFunctionsINS_14SdfOpaqueValueENS_6TfType5BasesIJEEEEC2Ev(ptr noundef nonnull align 8 dereferenceable(8) %2) #3
  %3 = getelementptr inbounds nuw %"struct.pxrInternal_v0_24__pxrReserved__::Tf_BaseTypeInfos", ptr %1, i32 0, i32 0
  %4 = load ptr, ptr %3, align 8
  %5 = getelementptr inbounds nuw %"struct.pxrInternal_v0_24__pxrReserved__::Tf_TypeCastFunctions", ptr %2, i32 0, i32 0
  %6 = load ptr, ptr %5, align 8
  %7 = call noundef nonnull align 8 dereferenceable(8) ptr @_ZN32pxrInternal_v0_24__pxrReserved__6TfType11_DefineImplERKSt9type_infoPPS2_PPFPvS6_bEmmbb(ptr noundef nonnull align 8 dereferenceable(16) @_ZTIN32pxrInternal_v0_24__pxrReserved__14SdfOpaqueValueE, ptr noundef %4, ptr noundef %6, i64 noundef 0, i64 noundef 1, i1 noundef zeroext true, i1 noundef zeroext false)
  ret ptr %7
}

; Function Attrs: mustprogress nounwind uwtable
define linkonce_odr void @_ZN32pxrInternal_v0_24__pxrReserved__16Tf_BaseTypeInfosINS_6TfType5BasesIJEEEEC2Ev(ptr noundef nonnull align 8 dereferenceable(8) %0) unnamed_addr #5 comdat align 2 {
  %2 = alloca ptr, align 8
  store ptr %0, ptr %2, align 8
  %3 = load ptr, ptr %2, align 8
  %4 = getelementptr inbounds nuw %"struct.pxrInternal_v0_24__pxrReserved__::Tf_BaseTypeInfos", ptr %3, i32 0, i32 0
  store ptr null, ptr %4, align 8
  ret void
}

; Function Attrs: mustprogress nounwind uwtable
define linkonce_odr void @_ZN32pxrInternal_v0_24__pxrReserved__20Tf_TypeCastFunctionsINS_14SdfOpaqueValueENS_6TfType5BasesIJEEEEC2Ev(ptr noundef nonnull align 8 dereferenceable(8) %0) unnamed_addr #5 comdat align 2 {
  %2 = alloca ptr, align 8
  store ptr %0, ptr %2, align 8
  %3 = load ptr, ptr %2, align 8
  %4 = getelementptr inbounds nuw %"struct.pxrInternal_v0_24__pxrReserved__::Tf_TypeCastFunctions", ptr %3, i32 0, i32 0
  store ptr null, ptr %4, align 8
  ret void
}

declare noundef nonnull align 8 dereferenceable(8) ptr @_ZN32pxrInternal_v0_24__pxrReserved__6TfType11_DefineImplERKSt9type_infoPPS2_PPFPvS6_bEmmbb(ptr noundef nonnull align 8 dereferenceable(16), ptr noundef, ptr noundef, i64 noundef, i64 noundef, i1 noundef zeroext, i1 noundef zeroext) #1

; Function Attrs: mustprogress uwtable
define linkonce_odr noundef nonnull align 8 dereferenceable(8) ptr @_ZN32pxrInternal_v0_24__pxrReserved__6TfType6DefineINS_7VtArrayINS_14SdfOpaqueValueEEENS0_5BasesIJEEEEERKS0_v() #4 comdat align 2 {
  %1 = alloca %"struct.pxrInternal_v0_24__pxrReserved__::Tf_BaseTypeInfos", align 8
  %2 = alloca %"struct.pxrInternal_v0_24__pxrReserved__::Tf_TypeCastFunctions.0", align 8
  call void @_ZN32pxrInternal_v0_24__pxrReserved__16Tf_BaseTypeInfosINS_6TfType5BasesIJEEEEC2Ev(ptr noundef nonnull align 8 dereferenceable(8) %1) #3
  call void @_ZN32pxrInternal_v0_24__pxrReserved__20Tf_TypeCastFunctionsINS_7VtArrayINS_14SdfOpaqueValueEEENS_6TfType5BasesIJEEEEC2Ev(ptr noundef nonnull align 8 dereferenceable(8) %2) #3
  %3 = getelementptr inbounds nuw %"struct.pxrInternal_v0_24__pxrReserved__::Tf_BaseTypeInfos", ptr %1, i32 0, i32 0
  %4 = load ptr, ptr %3, align 8
  %5 = getelementptr inbounds nuw %"struct.pxrInternal_v0_24__pxrReserved__::Tf_TypeCastFunctions.0", ptr %2, i32 0, i32 0
  %6 = load ptr, ptr %5, align 8
  %7 = call noundef nonnull align 8 dereferenceable(8) ptr @_ZN32pxrInternal_v0_24__pxrReserved__6TfType11_DefineImplERKSt9type_infoPPS2_PPFPvS6_bEmmbb(ptr noundef nonnull align 8 dereferenceable(16) @_ZTIN32pxrInternal_v0_24__pxrReserved__7VtArrayINS_14SdfOpaqueValueEEE, ptr noundef %4, ptr noundef %6, i64 noundef 0, i64 noundef 40, i1 noundef zeroext false, i1 noundef zeroext false)
  ret ptr %7
}

; Function Attrs: mustprogress nounwind uwtable
define linkonce_odr void @_ZN32pxrInternal_v0_24__pxrReserved__20Tf_TypeCastFunctionsINS_7VtArrayINS_14SdfOpaqueValueEEENS_6TfType5BasesIJEEEEC2Ev(ptr noundef nonnull align 8 dereferenceable(8) %0) unnamed_addr #5 comdat align 2 {
  %2 = alloca ptr, align 8
  store ptr %0, ptr %2, align 8
  %3 = load ptr, ptr %2, align 8
  %4 = getelementptr inbounds nuw %"struct.pxrInternal_v0_24__pxrReserved__::Tf_TypeCastFunctions.0", ptr %3, i32 0, i32 0
  store ptr null, ptr %4, align 8
  ret void
}

declare void @_ZN32pxrInternal_v0_24__pxrReserved__15Tf_RegistryInit3AddEPKcPFvPvS3_ES2_(ptr noundef, ptr noundef, ptr noundef) #1

declare void @_ZN32pxrInternal_v0_24__pxrReserved__19Tf_RegistryInitCtorEPKc(ptr noundef) #1

declare void @_ZN32pxrInternal_v0_24__pxrReserved__19Tf_RegistryInitDtorEPKc(ptr noundef) #1

declare i32 @__gxx_personality_v0(...)

; Function Attrs: noreturn nounwind uwtable
define linkonce_odr hidden void @__clang_call_terminate(ptr noundef %0) #6 comdat {
  %2 = call ptr @__cxa_begin_catch(ptr %0) #3
  call void @_ZSt9terminatev() #7
  unreachable
}

declare ptr @__cxa_begin_catch(ptr)

declare void @_ZSt9terminatev()

; Function Attrs: uwtable
define internal void @_GLOBAL__sub_I_opaqueValue.cpp() #0 section ".text.startup" {
  call void @__cxx_global_var_init()
  call void @__cxx_global_var_init.2()
  ret void
}


!llvm.module.flags = !{!0, !1, !2, !3}

!0 = !{i32 1, !"wchar_size", i32 4}
!1 = !{i32 8, !"PIC Level", i32 2}
!2 = !{i32 7, !"uwtable", i32 2}
!3 = !{i32 7, !"frame-pointer", i32 2}
